(dp0
S'838861315'
p1
(lp2
S'3'
p3
aS'-1'
p4
asS'838861314'
p5
(lp6
S'2'
p7
aS'-1'
p8
asS'838861317'
p9
(lp10
S'5'
p11
aS'-1'
p12
asS'838861316'
p13
(lp14
S'4'
p15
aS'-1'
p16
asS'838861313'
p17
(lp18
S'1'
p19
aS'-1'
p20
asS'838861319'
p21
(lp22
S'7'
p23
aS'-1'
p24
asS'838861318'
p25
(lp26
S'6'
p27
aS'-1'
p28
asS'838861320'
p29
(lp30
S'8'
p31
aS'-1'
p32
asS'838861321'
p33
(lp34
S'9'
p35
aS'-1'
p36
as.